target datalayout = "e-m:e-p270:32:32-p271:32:32-p272:64:64-i64:64-i128:128-f80:128-n8:16:32:64-S128"
target triple = "x86_64-pc-linux-gnu"

%struct.anon = type { i32, ptr, ptr, i32, i32, i32, i32, i32, i32, i32, i32, i32, ptr, ptr, ptr, ptr, ptr, ptr, ptr, ptr, [1 x %struct.__jmp_buf_tag], i32, ptr, ptr }
%struct.__jmp_buf_tag = type { [8 x i64], i32, %struct.__sigset_t }
%struct.__sigset_t = type { [16 x i64] }
%struct.clar_report = type { ptr, i32, ptr, i32, i64, double, ptr, ptr, ptr }
%struct.clar_error = type { ptr, ptr, i64, ptr, ptr, ptr }

@_clar = internal global %struct.anon zeroinitializer, align 8
@stdout = external global ptr, align 8
@.str.45 = private unnamed_addr constant [16 x i8] c"  %d) Failure:\0A\00", align 1
@.str.46 = private unnamed_addr constant [17 x i8] c"%s::%s [%s:%lu]\0A\00", align 1
@.str.47 = private unnamed_addr constant [6 x i8] c"  %s\0A\00", align 1
@.str.48 = private unnamed_addr constant [2 x i8] c"\0A\00", align 1

; Function Attrs: nounwind uwtable
define internal void @clar_print_tap_error(i32 noundef %0, ptr noundef %1, ptr noundef %2) #0 {
  %4 = alloca i32, align 4
  %5 = alloca ptr, align 8
  %6 = alloca ptr, align 8
  store i32 %0, ptr %4, align 4, !tbaa !16
  store ptr %1, ptr %5, align 8, !tbaa !66
  store ptr %2, ptr %6, align 8, !tbaa !82
  ret void
}

; Function Attrs: nounwind uwtable
define internal void @clar_print_clap_error(i32 noundef %0, ptr noundef %1, ptr noundef %2) #0 {
  %4 = alloca i32, align 4
  %5 = alloca ptr, align 8
  %6 = alloca ptr, align 8
  store i32 %0, ptr %4, align 4, !tbaa !16
  store ptr %1, ptr %5, align 8, !tbaa !66
  store ptr %2, ptr %6, align 8, !tbaa !82
  %7 = load i32, ptr %4, align 4, !tbaa !16
  %8 = call i32 (ptr, ...) @printf(ptr noundef @.str.45, i32 noundef %7)
  %9 = load ptr, ptr %5, align 8, !tbaa !66
  %10 = getelementptr inbounds nuw %struct.clar_report, ptr %9, i32 0, i32 2
  %11 = load ptr, ptr %10, align 8, !tbaa !67
  %12 = load ptr, ptr %5, align 8, !tbaa !66
  %13 = getelementptr inbounds nuw %struct.clar_report, ptr %12, i32 0, i32 0
  %14 = load ptr, ptr %13, align 8, !tbaa !71
  %15 = load ptr, ptr %6, align 8, !tbaa !82
  %16 = getelementptr inbounds nuw %struct.clar_error, ptr %15, i32 0, i32 0
  %17 = load ptr, ptr %16, align 8, !tbaa !94
  %18 = load ptr, ptr %6, align 8, !tbaa !82
  %19 = getelementptr inbounds nuw %struct.clar_error, ptr %18, i32 0, i32 2
  %20 = load i64, ptr %19, align 8, !tbaa !96
  %21 = call i32 (ptr, ...) @printf(ptr noundef @.str.46, ptr noundef %11, ptr noundef %14, ptr noundef %17, i64 noundef %20)
  %22 = load ptr, ptr %6, align 8, !tbaa !82
  %23 = getelementptr inbounds nuw %struct.clar_error, ptr %22, i32 0, i32 3
  %24 = load ptr, ptr %23, align 8, !tbaa !85
  %25 = call i32 (ptr, ...) @printf(ptr noundef @.str.47, ptr noundef %24)
  %26 = load ptr, ptr %6, align 8, !tbaa !82
  %27 = getelementptr inbounds nuw %struct.clar_error, ptr %26, i32 0, i32 4
  %28 = load ptr, ptr %27, align 8, !tbaa !87
  %29 = icmp ne ptr %28, null
  br i1 %29, label %30, label %35

30:                                               ; preds = %3
  %31 = load ptr, ptr %6, align 8, !tbaa !82
  %32 = getelementptr inbounds nuw %struct.clar_error, ptr %31, i32 0, i32 4
  %33 = load ptr, ptr %32, align 8, !tbaa !87
  %34 = call i32 (ptr, ...) @printf(ptr noundef @.str.47, ptr noundef %33)
  br label %35

35:                                               ; preds = %30, %3
  %36 = call i32 (ptr, ...) @printf(ptr noundef @.str.48)
  %37 = load ptr, ptr @stdout, align 8, !tbaa !47
  %38 = call i32 @fflush(ptr noundef %37)
  ret void
}

; Function Attrs: nounwind uwtable
define internal void @clar_print_error(i32 noundef %0, ptr noundef %1, ptr noundef %2) #0 {
  %4 = alloca i32, align 4
  %5 = alloca ptr, align 8
  %6 = alloca ptr, align 8
  store i32 %0, ptr %4, align 4, !tbaa !16
  store ptr %1, ptr %5, align 8, !tbaa !66
  store ptr %2, ptr %6, align 8, !tbaa !82
  br label %7

7:                                                ; preds = %3
  %8 = load i32, ptr getelementptr inbounds nuw (%struct.anon, ptr @_clar, i32 0, i32 7), align 8, !tbaa !44
  switch i32 %8, label %17 [
    i32 0, label %9
    i32 1, label %13
  ]

9:                                                ; preds = %7
  %10 = load i32, ptr %4, align 4, !tbaa !16
  %11 = load ptr, ptr %5, align 8, !tbaa !66
  %12 = load ptr, ptr %6, align 8, !tbaa !82
  call void @clar_print_clap_error(i32 noundef %10, ptr noundef %11, ptr noundef %12)
  br label %18

13:                                               ; preds = %7
  %14 = load i32, ptr %4, align 4, !tbaa !16
  %15 = load ptr, ptr %5, align 8, !tbaa !66
  %16 = load ptr, ptr %6, align 8, !tbaa !82
  call void @clar_print_tap_error(i32 noundef %14, ptr noundef %15, ptr noundef %16)
  br label %18

17:                                               ; preds = %7
  call void @abort() #16
  unreachable

18:                                               ; preds = %13, %9
  br label %19

19:                                               ; preds = %18
  ret void
}