; Function Attrs: nofree nounwind uwtable
define internal fastcc void @clar_print_error(i32 noundef %0, ptr noundef readonly captures(none) %1, ptr noundef nonnull readonly captures(none) %2) unnamed_addr #18 {
  %4 = load i32, ptr getelementptr inbounds nuw (i8, ptr @_clar, i64 40), align 8, !tbaa !35
  switch i32 %4, label %23 [
    i32 0, label %5
    i32 1, label %24
  ]

5:                                                ; preds = %3
  %6 = tail call i32 (ptr, ...) @printf(ptr noundef nonnull dereferenceable(1) @.str.45, i32 noundef %0)
  %7 = getelementptr inbounds nuw i8, ptr %1, i64 16
  %8 = load ptr, ptr %7, align 8, !tbaa !60
  %9 = load ptr, ptr %1, align 8, !tbaa !64
  %10 = load ptr, ptr %2, align 8, !tbaa !74
  %11 = getelementptr inbounds nuw i8, ptr %2, i64 16
  %12 = load i64, ptr %11, align 8, !tbaa !76
  %13 = tail call i32 (ptr, ...) @printf(ptr noundef nonnull dereferenceable(1) @.str.46, ptr noundef %8, ptr noundef %9, ptr noundef %10, i64 noundef %12)
  %14 = getelementptr inbounds nuw i8, ptr %2, i64 24
  %15 = load ptr, ptr %14, align 8, !tbaa !77
  %16 = tail call i32 (ptr, ...) @printf(ptr noundef nonnull dereferenceable(1) @.str.47, ptr noundef %15)
  %17 = getelementptr inbounds nuw i8, ptr %2, i64 32
  %18 = load ptr, ptr %17, align 8, !tbaa !78
  %.not.i = icmp eq ptr %18, null
  br i1 %.not.i, label %clar_print_clap_error.exit, label %19

19:                                               ; preds = %5
  %20 = tail call i32 (ptr, ...) @printf(ptr noundef nonnull dereferenceable(1) @.str.47, ptr noundef nonnull %18)
  br label %clar_print_clap_error.exit

clar_print_clap_error.exit:                       ; preds = %5, %19
  %putchar.i = tail call i32 @putchar(i32 10)
  %21 = load ptr, ptr @stdout, align 8, !tbaa !79
  %22 = tail call i32 @fflush(ptr noundef %21)
  br label %24

23:                                               ; preds = %3
  tail call void @abort() #30
  unreachable

24:                                               ; preds = %3, %clar_print_clap_error.exit
  ret void
}